
Crystal_Ball:     file format elf64-x86-64


Disassembly of section .init:

0000000000001000 <_init>:
    1000:	f3 0f 1e fa          	endbr64
    1004:	48 83 ec 08          	sub    $0x8,%rsp
    1008:	48 8b 05 d9 2f 00 00 	mov    0x2fd9(%rip),%rax        # 3fe8 <__gmon_start__@Base>
    100f:	48 85 c0             	test   %rax,%rax
    1012:	74 02                	je     1016 <_init+0x16>
    1014:	ff d0                	call   *%rax
    1016:	48 83 c4 08          	add    $0x8,%rsp
    101a:	c3                   	ret

Disassembly of section .plt:

0000000000001020 <.plt>:
    1020:	ff 35 7a 2f 00 00    	push   0x2f7a(%rip)        # 3fa0 <_GLOBAL_OFFSET_TABLE_+0x8>
    1026:	ff 25 7c 2f 00 00    	jmp    *0x2f7c(%rip)        # 3fa8 <_GLOBAL_OFFSET_TABLE_+0x10>
    102c:	0f 1f 40 00          	nopl   0x0(%rax)
    1030:	f3 0f 1e fa          	endbr64
    1034:	68 00 00 00 00       	push   $0x0
    1039:	e9 e2 ff ff ff       	jmp    1020 <_init+0x20>
    103e:	66 90                	xchg   %ax,%ax
    1040:	f3 0f 1e fa          	endbr64
    1044:	68 01 00 00 00       	push   $0x1
    1049:	e9 d2 ff ff ff       	jmp    1020 <_init+0x20>
    104e:	66 90                	xchg   %ax,%ax
    1050:	f3 0f 1e fa          	endbr64
    1054:	68 02 00 00 00       	push   $0x2
    1059:	e9 c2 ff ff ff       	jmp    1020 <_init+0x20>
    105e:	66 90                	xchg   %ax,%ax
    1060:	f3 0f 1e fa          	endbr64
    1064:	68 03 00 00 00       	push   $0x3
    1069:	e9 b2 ff ff ff       	jmp    1020 <_init+0x20>
    106e:	66 90                	xchg   %ax,%ax
    1070:	f3 0f 1e fa          	endbr64
    1074:	68 04 00 00 00       	push   $0x4
    1079:	e9 a2 ff ff ff       	jmp    1020 <_init+0x20>
    107e:	66 90                	xchg   %ax,%ax

Disassembly of section .plt.got:

0000000000001080 <__cxa_finalize@plt>:
    1080:	f3 0f 1e fa          	endbr64
    1084:	ff 25 6e 2f 00 00    	jmp    *0x2f6e(%rip)        # 3ff8 <__cxa_finalize@GLIBC_2.2.5>
    108a:	66 0f 1f 44 00 00    	nopw   0x0(%rax,%rax,1)

Disassembly of section .plt.sec:

0000000000001090 <putchar@plt>:
    1090:	f3 0f 1e fa          	endbr64
    1094:	ff 25 16 2f 00 00    	jmp    *0x2f16(%rip)        # 3fb0 <putchar@GLIBC_2.2.5>
    109a:	66 0f 1f 44 00 00    	nopw   0x0(%rax,%rax,1)

00000000000010a0 <puts@plt>:
    10a0:	f3 0f 1e fa          	endbr64
    10a4:	ff 25 0e 2f 00 00    	jmp    *0x2f0e(%rip)        # 3fb8 <puts@GLIBC_2.2.5>
    10aa:	66 0f 1f 44 00 00    	nopw   0x0(%rax,%rax,1)

00000000000010b0 <printf@plt>:
    10b0:	f3 0f 1e fa          	endbr64
    10b4:	ff 25 06 2f 00 00    	jmp    *0x2f06(%rip)        # 3fc0 <printf@GLIBC_2.2.5>
    10ba:	66 0f 1f 44 00 00    	nopw   0x0(%rax,%rax,1)

00000000000010c0 <gets@plt>:
    10c0:	f3 0f 1e fa          	endbr64
    10c4:	ff 25 fe 2e 00 00    	jmp    *0x2efe(%rip)        # 3fc8 <gets@GLIBC_2.2.5>
    10ca:	66 0f 1f 44 00 00    	nopw   0x0(%rax,%rax,1)

00000000000010d0 <fflush@plt>:
    10d0:	f3 0f 1e fa          	endbr64
    10d4:	ff 25 f6 2e 00 00    	jmp    *0x2ef6(%rip)        # 3fd0 <fflush@GLIBC_2.2.5>
    10da:	66 0f 1f 44 00 00    	nopw   0x0(%rax,%rax,1)

Disassembly of section .text:

00000000000010e0 <_start>:
    10e0:	f3 0f 1e fa          	endbr64
    10e4:	31 ed                	xor    %ebp,%ebp
    10e6:	49 89 d1             	mov    %rdx,%r9
    10e9:	5e                   	pop    %rsi
    10ea:	48 89 e2             	mov    %rsp,%rdx
    10ed:	48 83 e4 f0          	and    $0xfffffffffffffff0,%rsp
    10f1:	50                   	push   %rax
    10f2:	54                   	push   %rsp
    10f3:	45 31 c0             	xor    %r8d,%r8d
    10f6:	31 c9                	xor    %ecx,%ecx
    10f8:	48 8d 3d ca 00 00 00 	lea    0xca(%rip),%rdi        # 11c9 <main>
    10ff:	ff 15 d3 2e 00 00    	call   *0x2ed3(%rip)        # 3fd8 <__libc_start_main@GLIBC_2.34>
    1105:	f4                   	hlt
    1106:	66 2e 0f 1f 84 00 00 	cs nopw 0x0(%rax,%rax,1)
    110d:	00 00 00 

0000000000001110 <deregister_tm_clones>:
    1110:	48 8d 3d f9 2e 00 00 	lea    0x2ef9(%rip),%rdi        # 4010 <stdout@GLIBC_2.2.5>
    1117:	48 8d 05 f2 2e 00 00 	lea    0x2ef2(%rip),%rax        # 4010 <stdout@GLIBC_2.2.5>
    111e:	48 39 f8             	cmp    %rdi,%rax
    1121:	74 15                	je     1138 <deregister_tm_clones+0x28>
    1123:	48 8b 05 b6 2e 00 00 	mov    0x2eb6(%rip),%rax        # 3fe0 <_ITM_deregisterTMCloneTable@Base>
    112a:	48 85 c0             	test   %rax,%rax
    112d:	74 09                	je     1138 <deregister_tm_clones+0x28>
    112f:	ff e0                	jmp    *%rax
    1131:	0f 1f 80 00 00 00 00 	nopl   0x0(%rax)
    1138:	c3                   	ret
    1139:	0f 1f 80 00 00 00 00 	nopl   0x0(%rax)

0000000000001140 <register_tm_clones>:
    1140:	48 8d 3d c9 2e 00 00 	lea    0x2ec9(%rip),%rdi        # 4010 <stdout@GLIBC_2.2.5>
    1147:	48 8d 35 c2 2e 00 00 	lea    0x2ec2(%rip),%rsi        # 4010 <stdout@GLIBC_2.2.5>
    114e:	48 29 fe             	sub    %rdi,%rsi
    1151:	48 89 f0             	mov    %rsi,%rax
    1154:	48 c1 ee 3f          	shr    $0x3f,%rsi
    1158:	48 c1 f8 03          	sar    $0x3,%rax
    115c:	48 01 c6             	add    %rax,%rsi
    115f:	48 d1 fe             	sar    $1,%rsi
    1162:	74 14                	je     1178 <register_tm_clones+0x38>
    1164:	48 8b 05 85 2e 00 00 	mov    0x2e85(%rip),%rax        # 3ff0 <_ITM_registerTMCloneTable@Base>
    116b:	48 85 c0             	test   %rax,%rax
    116e:	74 08                	je     1178 <register_tm_clones+0x38>
    1170:	ff e0                	jmp    *%rax
    1172:	66 0f 1f 44 00 00    	nopw   0x0(%rax,%rax,1)
    1178:	c3                   	ret
    1179:	0f 1f 80 00 00 00 00 	nopl   0x0(%rax)

0000000000001180 <__do_global_dtors_aux>:
    1180:	f3 0f 1e fa          	endbr64
    1184:	80 3d 8d 2e 00 00 00 	cmpb   $0x0,0x2e8d(%rip)        # 4018 <completed.0>
    118b:	75 2b                	jne    11b8 <__do_global_dtors_aux+0x38>
    118d:	55                   	push   %rbp
    118e:	48 83 3d 62 2e 00 00 	cmpq   $0x0,0x2e62(%rip)        # 3ff8 <__cxa_finalize@GLIBC_2.2.5>
    1195:	00 
    1196:	48 89 e5             	mov    %rsp,%rbp
    1199:	74 0c                	je     11a7 <__do_global_dtors_aux+0x27>
    119b:	48 8b 3d 66 2e 00 00 	mov    0x2e66(%rip),%rdi        # 4008 <__dso_handle>
    11a2:	e8 d9 fe ff ff       	call   1080 <__cxa_finalize@plt>
    11a7:	e8 64 ff ff ff       	call   1110 <deregister_tm_clones>
    11ac:	c6 05 65 2e 00 00 01 	movb   $0x1,0x2e65(%rip)        # 4018 <completed.0>
    11b3:	5d                   	pop    %rbp
    11b4:	c3                   	ret
    11b5:	0f 1f 00             	nopl   (%rax)
    11b8:	c3                   	ret
    11b9:	0f 1f 80 00 00 00 00 	nopl   0x0(%rax)

00000000000011c0 <frame_dummy>:
    11c0:	f3 0f 1e fa          	endbr64
    11c4:	e9 77 ff ff ff       	jmp    1140 <register_tm_clones>

00000000000011c9 <main>:
    11c9:	f3 0f 1e fa          	endbr64
    11cd:	55                   	push   %rbp
    11ce:	48 89 e5             	mov    %rsp,%rbp
    11d1:	48 8d 05 30 0e 00 00 	lea    0xe30(%rip),%rax        # 2008 <_IO_stdin_used+0x8>
    11d8:	48 89 c7             	mov    %rax,%rdi
    11db:	e8 c0 fe ff ff       	call   10a0 <puts@plt>
    11e0:	b8 00 00 00 00       	mov    $0x0,%eax
    11e5:	e8 34 01 00 00       	call   131e <call_tester>
    11ea:	90                   	nop
    11eb:	5d                   	pop    %rbp
    11ec:	c3                   	ret

00000000000011ed <get_buf>:
    11ed:	f3 0f 1e fa          	endbr64
    11f1:	55                   	push   %rbp
    11f2:	48 89 e5             	mov    %rsp,%rbp
    11f5:	48 83 ec 20          	sub    $0x20,%rsp
    11f9:	48 8d 45 e0          	lea    -0x20(%rbp),%rax
    11fd:	48 89 c7             	mov    %rax,%rdi
    1200:	e8 bb fe ff ff       	call   10c0 <gets@plt>
    1205:	b8 01 00 00 00       	mov    $0x1,%eax
    120a:	c9                   	leave
    120b:	c3                   	ret

000000000000120c <printIT>:
    120c:	f3 0f 1e fa          	endbr64
    1210:	55                   	push   %rbp
    1211:	48 89 e5             	mov    %rsp,%rbp
    1214:	48 83 ec 40          	sub    $0x40,%rsp
    1218:	66 0f ef c0          	pxor   %xmm0,%xmm0
    121c:	0f 29 45 c0          	movaps %xmm0,-0x40(%rbp)
    1220:	0f 29 45 d0          	movaps %xmm0,-0x30(%rbp)
    1224:	0f 29 45 e0          	movaps %xmm0,-0x20(%rbp)
    1228:	0f 11 45 ec          	movups %xmm0,-0x14(%rbp)
    122c:	c7 45 c0 66 00 00 00 	movl   $0x66,-0x40(%rbp)
    1233:	c7 45 c4 6c 00 00 00 	movl   $0x6c,-0x3c(%rbp)
    123a:	c7 45 c8 61 00 00 00 	movl   $0x61,-0x38(%rbp)
    1241:	c7 45 cc 6d 00 00 00 	movl   $0x6d,-0x34(%rbp)
    1248:	c7 45 d0 65 00 00 00 	movl   $0x65,-0x30(%rbp)
    124f:	c7 45 d4 7b 00 00 00 	movl   $0x7b,-0x2c(%rbp)
    1256:	c7 45 d8 72 00 00 00 	movl   $0x72,-0x28(%rbp)
    125d:	c7 45 dc 69 00 00 00 	movl   $0x69,-0x24(%rbp)
    1264:	c7 45 e0 63 00 00 00 	movl   $0x63,-0x20(%rbp)
    126b:	c7 45 e4 68 00 00 00 	movl   $0x68,-0x1c(%rbp)
    1272:	c7 45 e8 33 00 00 00 	movl   $0x33,-0x18(%rbp)
    1279:	c7 45 ec 24 00 00 00 	movl   $0x24,-0x14(%rbp)
    1280:	c7 45 f0 21 00 00 00 	movl   $0x21,-0x10(%rbp)
    1287:	c7 45 f4 7d 00 00 00 	movl   $0x7d,-0xc(%rbp)
    128e:	c7 45 fc 00 00 00 00 	movl   $0x0,-0x4(%rbp)
    1295:	eb 26                	jmp    12bd <printIT+0xb1>
    1297:	8b 45 fc             	mov    -0x4(%rbp),%eax
    129a:	48 98                	cltq
    129c:	8b 44 85 c0          	mov    -0x40(%rbp,%rax,4),%eax
    12a0:	0f be c0             	movsbl %al,%eax
    12a3:	89 c7                	mov    %eax,%edi
    12a5:	e8 e6 fd ff ff       	call   1090 <putchar@plt>
    12aa:	48 8b 05 5f 2d 00 00 	mov    0x2d5f(%rip),%rax        # 4010 <stdout@GLIBC_2.2.5>
    12b1:	48 89 c7             	mov    %rax,%rdi
    12b4:	e8 17 fe ff ff       	call   10d0 <fflush@plt>
    12b9:	83 45 fc 01          	addl   $0x1,-0x4(%rbp)
    12bd:	83 7d fc 0d          	cmpl   $0xd,-0x4(%rbp)
    12c1:	7e d4                	jle    1297 <printIT+0x8b>
    12c3:	bf 0a 00 00 00       	mov    $0xa,%edi
    12c8:	e8 c3 fd ff ff       	call   1090 <putchar@plt>
    12cd:	48 8b 05 3c 2d 00 00 	mov    0x2d3c(%rip),%rax        # 4010 <stdout@GLIBC_2.2.5>
    12d4:	48 89 c7             	mov    %rax,%rdi
    12d7:	e8 f4 fd ff ff       	call   10d0 <fflush@plt>
    12dc:	90                   	nop
    12dd:	c9                   	leave
    12de:	c3                   	ret

00000000000012df <test>:
    12df:	f3 0f 1e fa          	endbr64
    12e3:	55                   	push   %rbp
    12e4:	48 89 e5             	mov    %rsp,%rbp
    12e7:	48 83 ec 10          	sub    $0x10,%rsp
    12eb:	b8 00 00 00 00       	mov    $0x0,%eax
    12f0:	e8 f8 fe ff ff       	call   11ed <get_buf>
    12f5:	89 45 fc             	mov    %eax,-0x4(%rbp)
    12f8:	48 8d 05 51 0d 00 00 	lea    0xd51(%rip),%rax        # 2050 <_IO_stdin_used+0x50>
    12ff:	48 89 c7             	mov    %rax,%rdi
    1302:	b8 00 00 00 00       	mov    $0x0,%eax
    1307:	e8 a4 fd ff ff       	call   10b0 <printf@plt>
    130c:	48 8b 05 fd 2c 00 00 	mov    0x2cfd(%rip),%rax        # 4010 <stdout@GLIBC_2.2.5>
    1313:	48 89 c7             	mov    %rax,%rdi
    1316:	e8 b5 fd ff ff       	call   10d0 <fflush@plt>
    131b:	90                   	nop
    131c:	c9                   	leave
    131d:	c3                   	ret

000000000000131e <call_tester>:
    131e:	f3 0f 1e fa          	endbr64
    1322:	55                   	push   %rbp
    1323:	48 89 e5             	mov    %rsp,%rbp
    1326:	b8 00 00 00 00       	mov    $0x0,%eax
    132b:	e8 af ff ff ff       	call   12df <test>
    1330:	90                   	nop
    1331:	5d                   	pop    %rbp
    1332:	c3                   	ret

0000000000001333 <overflowing_riches>:
    1333:	f3 0f 1e fa          	endbr64
    1337:	55                   	push   %rbp
    1338:	48 89 e5             	mov    %rsp,%rbp
    133b:	48 8d 05 3e 0d 00 00 	lea    0xd3e(%rip),%rax        # 2080 <_IO_stdin_used+0x80>
    1342:	48 89 c7             	mov    %rax,%rdi
    1345:	b8 00 00 00 00       	mov    $0x0,%eax
    134a:	e8 61 fd ff ff       	call   10b0 <printf@plt>
    134f:	48 8b 05 ba 2c 00 00 	mov    0x2cba(%rip),%rax        # 4010 <stdout@GLIBC_2.2.5>
    1356:	48 89 c7             	mov    %rax,%rdi
    1359:	e8 72 fd ff ff       	call   10d0 <fflush@plt>
    135e:	b8 00 00 00 00       	mov    $0x0,%eax
    1363:	e8 a4 fe ff ff       	call   120c <printIT>
    1368:	90                   	nop
    1369:	5d                   	pop    %rbp
    136a:	c3                   	ret

Disassembly of section .fini:

000000000000136c <_fini>:
    136c:	f3 0f 1e fa          	endbr64
    1370:	48 83 ec 08          	sub    $0x8,%rsp
    1374:	48 83 c4 08          	add    $0x8,%rsp
    1378:	c3                   	ret
