
./fairy_cave:     file format elf64-x86-64


Disassembly of section .init:

0000000000401000 <_init>:
  401000:	f3 0f 1e fa          	endbr64
  401004:	48 83 ec 08          	sub    rsp,0x8
  401008:	48 8b 05 d1 2f 00 00 	mov    rax,QWORD PTR [rip+0x2fd1]        # 403fe0 <__gmon_start__@Base>
  40100f:	48 85 c0             	test   rax,rax
  401012:	74 02                	je     401016 <_init+0x16>
  401014:	ff d0                	call   rax
  401016:	48 83 c4 08          	add    rsp,0x8
  40101a:	c3                   	ret

Disassembly of section .plt:

0000000000401020 <.plt>:
  401020:	ff 35 ca 2f 00 00    	push   QWORD PTR [rip+0x2fca]        # 403ff0 <_GLOBAL_OFFSET_TABLE_+0x8>
  401026:	ff 25 cc 2f 00 00    	jmp    QWORD PTR [rip+0x2fcc]        # 403ff8 <_GLOBAL_OFFSET_TABLE_+0x10>
  40102c:	0f 1f 40 00          	nop    DWORD PTR [rax+0x0]
  401030:	f3 0f 1e fa          	endbr64
  401034:	68 00 00 00 00       	push   0x0
  401039:	e9 e2 ff ff ff       	jmp    401020 <_init+0x20>
  40103e:	66 90                	xchg   ax,ax
  401040:	f3 0f 1e fa          	endbr64
  401044:	68 01 00 00 00       	push   0x1
  401049:	e9 d2 ff ff ff       	jmp    401020 <_init+0x20>
  40104e:	66 90                	xchg   ax,ax
  401050:	f3 0f 1e fa          	endbr64
  401054:	68 02 00 00 00       	push   0x2
  401059:	e9 c2 ff ff ff       	jmp    401020 <_init+0x20>
  40105e:	66 90                	xchg   ax,ax
  401060:	f3 0f 1e fa          	endbr64
  401064:	68 03 00 00 00       	push   0x3
  401069:	e9 b2 ff ff ff       	jmp    401020 <_init+0x20>
  40106e:	66 90                	xchg   ax,ax
  401070:	f3 0f 1e fa          	endbr64
  401074:	68 04 00 00 00       	push   0x4
  401079:	e9 a2 ff ff ff       	jmp    401020 <_init+0x20>
  40107e:	66 90                	xchg   ax,ax
  401080:	f3 0f 1e fa          	endbr64
  401084:	68 05 00 00 00       	push   0x5
  401089:	e9 92 ff ff ff       	jmp    401020 <_init+0x20>
  40108e:	66 90                	xchg   ax,ax
  401090:	f3 0f 1e fa          	endbr64
  401094:	68 06 00 00 00       	push   0x6
  401099:	e9 82 ff ff ff       	jmp    401020 <_init+0x20>
  40109e:	66 90                	xchg   ax,ax

Disassembly of section .plt.sec:

00000000004010a0 <puts@plt>:
  4010a0:	f3 0f 1e fa          	endbr64
  4010a4:	ff 25 56 2f 00 00    	jmp    QWORD PTR [rip+0x2f56]        # 404000 <puts@GLIBC_2.2.5>
  4010aa:	66 0f 1f 44 00 00    	nop    WORD PTR [rax+rax*1+0x0]

00000000004010b0 <setbuf@plt>:
  4010b0:	f3 0f 1e fa          	endbr64
  4010b4:	ff 25 4e 2f 00 00    	jmp    QWORD PTR [rip+0x2f4e]        # 404008 <setbuf@GLIBC_2.2.5>
  4010ba:	66 0f 1f 44 00 00    	nop    WORD PTR [rax+rax*1+0x0]

00000000004010c0 <printf@plt>:
  4010c0:	f3 0f 1e fa          	endbr64
  4010c4:	ff 25 46 2f 00 00    	jmp    QWORD PTR [rip+0x2f46]        # 404010 <printf@GLIBC_2.2.5>
  4010ca:	66 0f 1f 44 00 00    	nop    WORD PTR [rax+rax*1+0x0]

00000000004010d0 <signal@plt>:
  4010d0:	f3 0f 1e fa          	endbr64
  4010d4:	ff 25 3e 2f 00 00    	jmp    QWORD PTR [rip+0x2f3e]        # 404018 <signal@GLIBC_2.2.5>
  4010da:	66 0f 1f 44 00 00    	nop    WORD PTR [rax+rax*1+0x0]

00000000004010e0 <gets@plt>:
  4010e0:	f3 0f 1e fa          	endbr64
  4010e4:	ff 25 36 2f 00 00    	jmp    QWORD PTR [rip+0x2f36]        # 404020 <gets@GLIBC_2.2.5>
  4010ea:	66 0f 1f 44 00 00    	nop    WORD PTR [rax+rax*1+0x0]

00000000004010f0 <exit@plt>:
  4010f0:	f3 0f 1e fa          	endbr64
  4010f4:	ff 25 2e 2f 00 00    	jmp    QWORD PTR [rip+0x2f2e]        # 404028 <exit@GLIBC_2.2.5>
  4010fa:	66 0f 1f 44 00 00    	nop    WORD PTR [rax+rax*1+0x0]

0000000000401100 <__ctype_b_loc@plt>:
  401100:	f3 0f 1e fa          	endbr64
  401104:	ff 25 26 2f 00 00    	jmp    QWORD PTR [rip+0x2f26]        # 404030 <__ctype_b_loc@GLIBC_2.3>
  40110a:	66 0f 1f 44 00 00    	nop    WORD PTR [rax+rax*1+0x0]

Disassembly of section .text:

0000000000401110 <_start>:
  401110:	f3 0f 1e fa          	endbr64
  401114:	31 ed                	xor    ebp,ebp
  401116:	49 89 d1             	mov    r9,rdx
  401119:	5e                   	pop    rsi
  40111a:	48 89 e2             	mov    rdx,rsp
  40111d:	48 83 e4 f0          	and    rsp,0xfffffffffffffff0
  401121:	50                   	push   rax
  401122:	54                   	push   rsp
  401123:	45 31 c0             	xor    r8d,r8d
  401126:	31 c9                	xor    ecx,ecx
  401128:	48 c7 c7 f9 12 40 00 	mov    rdi,0x4012f9
  40112f:	ff 15 a3 2e 00 00    	call   QWORD PTR [rip+0x2ea3]        # 403fd8 <__libc_start_main@GLIBC_2.34>
  401135:	f4                   	hlt
  401136:	66 2e 0f 1f 84 00 00 	cs nop WORD PTR [rax+rax*1+0x0]
  40113d:	00 00 00 

0000000000401140 <_dl_relocate_static_pie>:
  401140:	f3 0f 1e fa          	endbr64
  401144:	c3                   	ret
  401145:	66 2e 0f 1f 84 00 00 	cs nop WORD PTR [rax+rax*1+0x0]
  40114c:	00 00 00 
  40114f:	90                   	nop

0000000000401150 <deregister_tm_clones>:
  401150:	b8 68 40 40 00       	mov    eax,0x404068
  401155:	48 3d 68 40 40 00    	cmp    rax,0x404068
  40115b:	74 13                	je     401170 <deregister_tm_clones+0x20>
  40115d:	b8 00 00 00 00       	mov    eax,0x0
  401162:	48 85 c0             	test   rax,rax
  401165:	74 09                	je     401170 <deregister_tm_clones+0x20>
  401167:	bf 68 40 40 00       	mov    edi,0x404068
  40116c:	ff e0                	jmp    rax
  40116e:	66 90                	xchg   ax,ax
  401170:	c3                   	ret
  401171:	66 66 2e 0f 1f 84 00 	data16 cs nop WORD PTR [rax+rax*1+0x0]
  401178:	00 00 00 00 
  40117c:	0f 1f 40 00          	nop    DWORD PTR [rax+0x0]

0000000000401180 <register_tm_clones>:
  401180:	be 68 40 40 00       	mov    esi,0x404068
  401185:	48 81 ee 68 40 40 00 	sub    rsi,0x404068
  40118c:	48 89 f0             	mov    rax,rsi
  40118f:	48 c1 ee 3f          	shr    rsi,0x3f
  401193:	48 c1 f8 03          	sar    rax,0x3
  401197:	48 01 c6             	add    rsi,rax
  40119a:	48 d1 fe             	sar    rsi,1
  40119d:	74 11                	je     4011b0 <register_tm_clones+0x30>
  40119f:	b8 00 00 00 00       	mov    eax,0x0
  4011a4:	48 85 c0             	test   rax,rax
  4011a7:	74 07                	je     4011b0 <register_tm_clones+0x30>
  4011a9:	bf 68 40 40 00       	mov    edi,0x404068
  4011ae:	ff e0                	jmp    rax
  4011b0:	c3                   	ret
  4011b1:	66 66 2e 0f 1f 84 00 	data16 cs nop WORD PTR [rax+rax*1+0x0]
  4011b8:	00 00 00 00 
  4011bc:	0f 1f 40 00          	nop    DWORD PTR [rax+0x0]

00000000004011c0 <__do_global_dtors_aux>:
  4011c0:	f3 0f 1e fa          	endbr64
  4011c4:	80 3d a5 2e 00 00 00 	cmp    BYTE PTR [rip+0x2ea5],0x0        # 404070 <completed.0>
  4011cb:	75 13                	jne    4011e0 <__do_global_dtors_aux+0x20>
  4011cd:	55                   	push   rbp
  4011ce:	48 89 e5             	mov    rbp,rsp
  4011d1:	e8 7a ff ff ff       	call   401150 <deregister_tm_clones>
  4011d6:	c6 05 93 2e 00 00 01 	mov    BYTE PTR [rip+0x2e93],0x1        # 404070 <completed.0>
  4011dd:	5d                   	pop    rbp
  4011de:	c3                   	ret
  4011df:	90                   	nop
  4011e0:	c3                   	ret
  4011e1:	66 66 2e 0f 1f 84 00 	data16 cs nop WORD PTR [rax+rax*1+0x0]
  4011e8:	00 00 00 00 
  4011ec:	0f 1f 40 00          	nop    DWORD PTR [rax+0x0]

00000000004011f0 <frame_dummy>:
  4011f0:	f3 0f 1e fa          	endbr64
  4011f4:	eb 8a                	jmp    401180 <register_tm_clones>

00000000004011f6 <fairy_cave>:
  4011f6:	f3 0f 1e fa          	endbr64
  4011fa:	55                   	push   rbp
  4011fb:	48 89 e5             	mov    rbp,rsp
  4011fe:	48 83 ec 10          	sub    rsp,0x10
  401202:	89 7d fc             	mov    DWORD PTR [rbp-0x4],edi
  401205:	be 50 40 40 00       	mov    esi,0x404050
  40120a:	bf 08 20 40 00       	mov    edi,0x402008
  40120f:	b8 00 00 00 00       	mov    eax,0x0
  401214:	e8 a7 fe ff ff       	call   4010c0 <printf@plt>
  401219:	bf 01 00 00 00       	mov    edi,0x1
  40121e:	e8 cd fe ff ff       	call   4010f0 <exit@plt>

0000000000401223 <fairy_cipher>:
  401223:	f3 0f 1e fa          	endbr64
  401227:	55                   	push   rbp
  401228:	48 89 e5             	mov    rbp,rsp
  40122b:	48 83 ec 10          	sub    rsp,0x10
  40122f:	c6 05 1a 2e 00 00 43 	mov    BYTE PTR [rip+0x2e1a],0x43        # 404050 <flag>
  401236:	c6 05 14 2e 00 00 54 	mov    BYTE PTR [rip+0x2e14],0x54        # 404051 <flag+0x1>
  40123d:	c6 05 0e 2e 00 00 46 	mov    BYTE PTR [rip+0x2e0e],0x46        # 404052 <flag+0x2>
  401244:	c6 05 08 2e 00 00 7b 	mov    BYTE PTR [rip+0x2e08],0x7b        # 404053 <flag+0x3>
  40124b:	c7 45 fc 04 00 00 00 	mov    DWORD PTR [rbp-0x4],0x4
  401252:	eb 4d                	jmp    4012a1 <fairy_cipher+0x7e>
  401254:	e8 a7 fe ff ff       	call   401100 <__ctype_b_loc@plt>
  401259:	48 8b 10             	mov    rdx,QWORD PTR [rax]
  40125c:	8b 45 fc             	mov    eax,DWORD PTR [rbp-0x4]
  40125f:	48 98                	cdqe
  401261:	0f b6 80 50 40 40 00 	movzx  eax,BYTE PTR [rax+0x404050]
  401268:	48 0f be c0          	movsx  rax,al
  40126c:	48 01 c0             	add    rax,rax
  40126f:	48 01 d0             	add    rax,rdx
  401272:	0f b7 00             	movzx  eax,WORD PTR [rax]
  401275:	0f b7 c0             	movzx  eax,ax
  401278:	25 00 04 00 00       	and    eax,0x400
  40127d:	85 c0                	test   eax,eax
  40127f:	74 1c                	je     40129d <fairy_cipher+0x7a>
  401281:	8b 45 fc             	mov    eax,DWORD PTR [rbp-0x4]
  401284:	48 98                	cdqe
  401286:	0f b6 80 50 40 40 00 	movzx  eax,BYTE PTR [rax+0x404050]
  40128d:	83 e8 04             	sub    eax,0x4
  401290:	89 c2                	mov    edx,eax
  401292:	8b 45 fc             	mov    eax,DWORD PTR [rbp-0x4]
  401295:	48 98                	cdqe
  401297:	88 90 50 40 40 00    	mov    BYTE PTR [rax+0x404050],dl
  40129d:	83 45 fc 01          	add    DWORD PTR [rbp-0x4],0x1
  4012a1:	83 7d fc 0e          	cmp    DWORD PTR [rbp-0x4],0xe
  4012a5:	7e ad                	jle    401254 <fairy_cipher+0x31>
  4012a7:	c6 05 b1 2d 00 00 7d 	mov    BYTE PTR [rip+0x2db1],0x7d        # 40405f <flag+0xf>
  4012ae:	90                   	nop
  4012af:	c9                   	leave
  4012b0:	c3                   	ret

00000000004012b1 <entrance>:
  4012b1:	f3 0f 1e fa          	endbr64
  4012b5:	55                   	push   rbp
  4012b6:	48 89 e5             	mov    rbp,rsp
  4012b9:	48 83 ec 40          	sub    rsp,0x40
  4012bd:	bf 40 20 40 00       	mov    edi,0x402040
  4012c2:	e8 d9 fd ff ff       	call   4010a0 <puts@plt>
  4012c7:	48 8d 45 c0          	lea    rax,[rbp-0x40]
  4012cb:	48 89 c7             	mov    rdi,rax
  4012ce:	b8 00 00 00 00       	mov    eax,0x0
  4012d3:	e8 08 fe ff ff       	call   4010e0 <gets@plt>
  4012d8:	be f6 11 40 00       	mov    esi,0x4011f6
  4012dd:	bf 0b 00 00 00       	mov    edi,0xb
  4012e2:	e8 e9 fd ff ff       	call   4010d0 <signal@plt>
  4012e7:	bf 6d 20 40 00       	mov    edi,0x40206d
  4012ec:	b8 00 00 00 00       	mov    eax,0x0
  4012f1:	e8 ca fd ff ff       	call   4010c0 <printf@plt>
  4012f6:	90                   	nop
  4012f7:	c9                   	leave
  4012f8:	c3                   	ret

00000000004012f9 <main>:
  4012f9:	f3 0f 1e fa          	endbr64
  4012fd:	55                   	push   rbp
  4012fe:	48 89 e5             	mov    rbp,rsp
  401301:	48 8b 05 60 2d 00 00 	mov    rax,QWORD PTR [rip+0x2d60]        # 404068 <stdout@GLIBC_2.2.5>
  401308:	be 00 00 00 00       	mov    esi,0x0
  40130d:	48 89 c7             	mov    rdi,rax
  401310:	e8 9b fd ff ff       	call   4010b0 <setbuf@plt>
  401315:	e8 09 ff ff ff       	call   401223 <fairy_cipher>
  40131a:	e8 92 ff ff ff       	call   4012b1 <entrance>
  40131f:	bf 88 20 40 00       	mov    edi,0x402088
  401324:	e8 77 fd ff ff       	call   4010a0 <puts@plt>
  401329:	b8 00 00 00 00       	mov    eax,0x0
  40132e:	5d                   	pop    rbp
  40132f:	c3                   	ret

Disassembly of section .fini:

0000000000401330 <_fini>:
  401330:	f3 0f 1e fa          	endbr64
  401334:	48 83 ec 08          	sub    rsp,0x8
  401338:	48 83 c4 08          	add    rsp,0x8
  40133c:	c3                   	ret
