	.file	"flame.c"
	.text
	.globl	flag
	.data
	.align 16
	.type	flag, @object
	.size	flag, 19
flag:
	.string	"AAAAAAqekmg_jpeqiB"
	.section	.rodata
	.align 8
.LC0:
	.string	"You've found the entrance to the fairy cave! %s\n"
	.text
	.globl	fairy_cave
	.type	fairy_cave, @function
fairy_cave:
.LFB6:
	.cfi_startproc
	endbr64
	pushq	%rbp
	.cfi_def_cfa_offset 16
	.cfi_offset 6, -16
	movq	%rsp, %rbp
	.cfi_def_cfa_register 6
	subq	$16, %rsp
	movl	%edi, -4(%rbp)
	leaq	flag(%rip), %rax
	movq	%rax, %rsi
	leaq	.LC0(%rip), %rax
	movq	%rax, %rdi
	movl	$0, %eax
	call	printf@PLT
	movl	$1, %edi
	call	exit@PLT
	.cfi_endproc
.LFE6:
	.size	fairy_cave, .-fairy_cave
	.globl	fairy_cipher
	.type	fairy_cipher, @function
fairy_cipher:
.LFB7:
	.cfi_startproc
	endbr64
	pushq	%rbp
	.cfi_def_cfa_offset 16
	.cfi_offset 6, -16
	movq	%rsp, %rbp
	.cfi_def_cfa_register 6
	subq	$16, %rsp
	movb	$102, flag(%rip)
	movb	$108, 1+flag(%rip)
	movb	$97, 2+flag(%rip)
	movb	$109, 3+flag(%rip)
	movb	$101, 4+flag(%rip)
	movb	$123, 5+flag(%rip)
	movl	$0, -4(%rbp)
	jmp	.L3
.L5:
	call	__ctype_b_loc@PLT
	movq	(%rax), %rdx
	movl	-4(%rbp), %eax
	addl	$6, %eax
	cltq
	leaq	flag(%rip), %rcx
	movzbl	(%rax,%rcx), %eax
	movsbq	%al, %rax
	addq	%rax, %rax
	addq	%rdx, %rax
	movzwl	(%rax), %eax
	movzwl	%ax, %eax
	andl	$1024, %eax
	testl	%eax, %eax
	je	.L4
	movl	-4(%rbp), %eax
	addl	$6, %eax
	cltq
	leaq	flag(%rip), %rdx
	movzbl	(%rax,%rdx), %eax
	leal	-4(%rax), %edx
	movl	-4(%rbp), %eax
	addl	$6, %eax
	movl	%edx, %ecx
	cltq
	leaq	flag(%rip), %rdx
	movb	%cl, (%rax,%rdx)
.L4:
	addl	$1, -4(%rbp)
.L3:
	cmpl	$9, -4(%rbp)
	jle	.L5
	movb	$125, 17+flag(%rip)
	nop
	leave
	.cfi_def_cfa 7, 8
	ret
	.cfi_endproc
.LFE7:
	.size	fairy_cipher, .-fairy_cipher
	.section	.rodata
	.align 8
.LC1:
	.string	"You find something suspicious in the wall..."
.LC2:
	.string	"You wait for a response..."
	.text
	.globl	entrance
	.type	entrance, @function
entrance:
.LFB8:
	.cfi_startproc
	endbr64
	pushq	%rbp
	.cfi_def_cfa_offset 16
	.cfi_offset 6, -16
	movq	%rsp, %rbp
	.cfi_def_cfa_register 6
	subq	$80, %rsp
	movq	%fs:40, %rax
	movq	%rax, -8(%rbp)
	xorl	%eax, %eax
	leaq	.LC1(%rip), %rax
	movq	%rax, %rdi
	call	puts@PLT
	leaq	-80(%rbp), %rax
	movq	%rax, %rdi
	movl	$0, %eax
	call	gets@PLT
	leaq	fairy_cave(%rip), %rax
	movq	%rax, %rsi
	movl	$11, %edi
	call	signal@PLT
	leaq	.LC2(%rip), %rax
	movq	%rax, %rdi
	movl	$0, %eax
	call	printf@PLT
	nop
	movq	-8(%rbp), %rax
	subq	%fs:40, %rax
	je	.L7
	call	__stack_chk_fail@PLT
.L7:
	leave
	.cfi_def_cfa 7, 8
	ret
	.cfi_endproc
.LFE8:
	.size	entrance, .-entrance
	.section	.rodata
.LC3:
	.string	"You exit the cave.\n"
	.text
	.globl	main
	.type	main, @function
main:
.LFB9:
	.cfi_startproc
	endbr64
	pushq	%rbp
	.cfi_def_cfa_offset 16
	.cfi_offset 6, -16
	movq	%rsp, %rbp
	.cfi_def_cfa_register 6
	movq	stdout(%rip), %rax
	movl	$0, %esi
	movq	%rax, %rdi
	call	setbuf@PLT
	call	fairy_cipher
	call	entrance
	leaq	.LC3(%rip), %rax
	movq	%rax, %rdi
	call	puts@PLT
	movl	$0, %eax
	popq	%rbp
	.cfi_def_cfa 7, 8
	ret
	.cfi_endproc
.LFE9:
	.size	main, .-main
	.ident	"GCC: (Ubuntu 13.3.0-6ubuntu2~24.04) 13.3.0"
	.section	.note.GNU-stack,"",@progbits
	.section	.note.gnu.property,"a"
	.align 8
	.long	1f - 0f
	.long	4f - 1f
	.long	5
0:
	.string	"GNU"
1:
	.align 8
	.long	0xc0000002
	.long	3f - 2f
2:
	.long	0x3
3:
	.align 8
4:
